target datalayout = "e-m:e-p270:32:32-p271:32:32-p272:64:64-i64:64-i128:128-f80:128-n8:16:32:64-S128"
target triple = "x86_64-pc-linux-gnu"

%struct.H5F_t = type { ptr, ptr, ptr, ptr, i32, ptr, i8, i8, ptr, i32 }
%struct.H5F_shared_t = type { ptr, ptr, ptr, i8, i32, i32, %struct.H5F_mtab_t, ptr, i8, i8, i64, i32, i32, i64, i64, ptr, ptr, %struct.H5AC_cache_config_t, %struct.H5AC_cache_image_config_t, i8, i8, ptr, i64, i32, i8, i64, i64, double, i64, i64, i64, i32, i32, i32, i8, i32, ptr, ptr, ptr, ptr, i8, i8, i8, i64, i64, ptr, ptr, i32, i64, i8, i32, i8, i64, i8, [13 x i32], [13 x i64], [13 x ptr], i8, i64, i64, [7 x i32], [7 x i32], %struct.H5F_blk_aggr_t, %struct.H5F_blk_aggr_t, i64, i64, %struct.H5F_meta_accum_t, i32, i32, [30 x ptr], %struct.H5F_object_flush_t, i8, ptr }
%struct.H5F_mtab_t = type { i32, i32, ptr }
%struct.H5AC_cache_config_t = type { i32, i8, i8, i8, [1025 x i8], i8, i8, i64, double, i64, i64, i64, i32, double, double, i8, i64, i32, double, double, i32, double, double, i8, i64, i32, i8, double, i64, i32 }
%struct.H5AC_cache_image_config_t = type { i32, i8, i8, i32 }
%struct.H5F_blk_aggr_t = type { i64, i64, i64, i64, i64 }
%struct.H5F_meta_accum_t = type { ptr, i64, i64, i64, i64, i64, i8 }
%struct.H5F_object_flush_t = type { ptr, ptr }

; Function Attrs: nounwind uwtable
define void @H5F_addr_encode_len(i64 noundef %0, ptr noundef %1, i64 noundef %2) #0 {
  %4 = alloca i64, align 8
  %5 = alloca ptr, align 8
  %6 = alloca i64, align 8
  %7 = alloca i32, align 4
  store i64 %0, ptr %4, align 8
  store ptr %1, ptr %5, align 8
  store i64 %2, ptr %6, align 8
  %8 = load i64, ptr %6, align 8
  %9 = icmp ne i64 %8, -1
  br i1 %9, label %10, label %29

10:                                               ; preds = %3
  store i32 0, ptr %7, align 4
  br label %11

11:                                               ; preds = %25, %10
  %12 = load i32, ptr %7, align 4
  %13 = zext i32 %12 to i64
  %14 = load i64, ptr %4, align 8
  %15 = icmp ult i64 %13, %14
  br i1 %15, label %16, label %28

16:                                               ; preds = %11
  %17 = load i64, ptr %6, align 8
  %18 = and i64 %17, 255
  %19 = trunc i64 %18 to i8
  %20 = load ptr, ptr %5, align 8
  %21 = load ptr, ptr %20, align 8
  %22 = getelementptr inbounds i8, ptr %21, i32 1
  store ptr %22, ptr %20, align 8
  store i8 %19, ptr %21, align 1
  %23 = load i64, ptr %6, align 8
  %24 = lshr i64 %23, 8
  store i64 %24, ptr %6, align 8
  br label %25

25:                                               ; preds = %16
  %26 = load i32, ptr %7, align 4
  %27 = add i32 %26, 1
  store i32 %27, ptr %7, align 4
  br label %11

28:                                               ; preds = %11
  br label %43

29:                                               ; preds = %3
  store i32 0, ptr %7, align 4
  br label %30

30:                                               ; preds = %39, %29
  %31 = load i32, ptr %7, align 4
  %32 = zext i32 %31 to i64
  %33 = load i64, ptr %4, align 8
  %34 = icmp ult i64 %32, %33
  br i1 %34, label %35, label %42

35:                                               ; preds = %30
  %36 = load ptr, ptr %5, align 8
  %37 = load ptr, ptr %36, align 8
  %38 = getelementptr inbounds i8, ptr %37, i32 1
  store ptr %38, ptr %36, align 8
  store i8 -1, ptr %37, align 1
  br label %39

39:                                               ; preds = %35
  %40 = load i32, ptr %7, align 4
  %41 = add i32 %40, 1
  store i32 %41, ptr %7, align 4
  br label %30

42:                                               ; preds = %30
  br label %43

43:                                               ; preds = %42, %28
  ret void
}

; Function Attrs: nounwind uwtable
define void @H5F_addr_encode(ptr noundef %0, ptr noundef %1, i64 noundef %2) #0 {
  %4 = alloca ptr, align 8
  %5 = alloca ptr, align 8
  %6 = alloca i64, align 8
  store ptr %0, ptr %4, align 8
  store ptr %1, ptr %5, align 8
  store i64 %2, ptr %6, align 8
  %7 = load ptr, ptr %4, align 8
  %8 = getelementptr inbounds %struct.H5F_t, ptr %7, i32 0, i32 2
  %9 = load ptr, ptr %8, align 8
  %10 = getelementptr inbounds %struct.H5F_shared_t, ptr %9, i32 0, i32 8
  %11 = load i8, ptr %10, align 8
  %12 = zext i8 %11 to i64
  %13 = load ptr, ptr %5, align 8
  %14 = load i64, ptr %6, align 8
  call void @H5F_addr_encode_len(i64 noundef %12, ptr noundef %13, i64 noundef %14)
  ret void
}