; Function Attrs: nofree norecurse nosync nounwind memory(readwrite, inaccessiblemem: none) uwtable
define void @H5F_addr_encode(ptr nocapture noundef readonly %0, ptr nocapture noundef %1, i64 noundef %2) local_unnamed_addr #8 {
  %4 = getelementptr inbounds i8, ptr %0, i64 16
  %5 = load ptr, ptr %4, align 8
  %6 = getelementptr inbounds i8, ptr %5, i64 64
  %7 = load i8, ptr %6, align 8
  %.not.i = icmp eq i64 %2, -1
  %.not19.i = icmp eq i8 %7, 0
  br i1 %.not.i, label %.preheader.i, label %.preheader12.i

.preheader12.i:                                   ; preds = %3
  br i1 %.not19.i, label %H5F_addr_encode_len.exit, label %.lr.ph.i.preheader

.lr.ph.i.preheader:                               ; preds = %.preheader12.i
  %8 = zext i8 %7 to i32
  br label %.lr.ph.i

.preheader.i:                                     ; preds = %3
  br i1 %.not19.i, label %H5F_addr_encode_len.exit, label %.lr.ph17.i.preheader

.lr.ph17.i.preheader:                             ; preds = %.preheader.i
  %9 = zext i8 %7 to i32
  br label %.lr.ph17.i

.lr.ph.i:                                         ; preds = %.lr.ph.i.preheader, %.lr.ph.i
  %.015.i = phi i32 [ %14, %.lr.ph.i ], [ 0, %.lr.ph.i.preheader ]
  %.01014.i = phi i64 [ %13, %.lr.ph.i ], [ %2, %.lr.ph.i.preheader ]
  %10 = trunc i64 %.01014.i to i8
  %11 = load ptr, ptr %1, align 8
  %12 = getelementptr inbounds i8, ptr %11, i64 1
  store ptr %12, ptr %1, align 8
  store i8 %10, ptr %11, align 1
  %13 = lshr i64 %.01014.i, 8
  %14 = add nuw nsw i32 %.015.i, 1
  %exitcond.not = icmp eq i32 %14, %8
  br i1 %exitcond.not, label %H5F_addr_encode_len.exit, label %.lr.ph.i

.lr.ph17.i:                                       ; preds = %.lr.ph17.i.preheader, %.lr.ph17.i
  %.116.i = phi i32 [ %17, %.lr.ph17.i ], [ 0, %.lr.ph17.i.preheader ]
  %15 = load ptr, ptr %1, align 8
  %16 = getelementptr inbounds i8, ptr %15, i64 1
  store ptr %16, ptr %1, align 8
  store i8 -1, ptr %15, align 1
  %17 = add nuw nsw i32 %.116.i, 1
  %exitcond4.not = icmp eq i32 %17, %9
  br i1 %exitcond4.not, label %H5F_addr_encode_len.exit, label %.lr.ph17.i

H5F_addr_encode_len.exit:                         ; preds = %.lr.ph.i, %.lr.ph17.i, %.preheader12.i, %.preheader.i
  ret void
}